target datalayout = "e-m:e-p270:32:32-p271:32:32-p272:64:64-i64:64-i128:128-f80:128-n8:16:32:64-S128"
target triple = "x86_64-pc-linux-gnu"

@.str = private unnamed_addr constant [126 x i8] c"generated/home/dtcxzyw/WorkSpace/Projects/compilers/llvm-opt-benchmark/bench/libquic/libquic/boringssl/crypto/x509/x509_att.c\00", align 1
@.str.1 = private unnamed_addr constant [6 x i8] c"name=\00", align 1

; Function Attrs: nounwind uwtable
define hidden ptr @X509_ATTRIBUTE_create_by_txt(ptr noundef %0, ptr noundef %1, i32 noundef %2, ptr noundef %3, i32 noundef %4) #0 {
  %6 = alloca ptr, align 8
  %7 = alloca ptr, align 8
  %8 = alloca ptr, align 8
  %9 = alloca i32, align 4
  %10 = alloca ptr, align 8
  %11 = alloca i32, align 4
  %12 = alloca ptr, align 8
  %13 = alloca ptr, align 8
  %14 = alloca i32, align 4
  store ptr %0, ptr %7, align 8, !tbaa !25
  store ptr %1, ptr %8, align 8, !tbaa !23
  store i32 %2, ptr %9, align 4, !tbaa !11
  store ptr %3, ptr %10, align 8, !tbaa !23
  store i32 %4, ptr %11, align 4, !tbaa !11
  call void @llvm.lifetime.start.p0(i64 8, ptr %12) #3
  call void @llvm.lifetime.start.p0(i64 8, ptr %13) #3
  %15 = load ptr, ptr %8, align 8, !tbaa !23
  %16 = call ptr @OBJ_txt2obj(ptr noundef %15, i32 noundef 0)
  store ptr %16, ptr %12, align 8, !tbaa !13
  %17 = load ptr, ptr %12, align 8, !tbaa !13
  %18 = icmp eq ptr %17, null
  br i1 %18, label %19, label %21

19:                                               ; preds = %5
  call void @ERR_put_error(i32 noundef 11, i32 noundef 0, i32 noundef 111, ptr noundef @.str, i32 noundef 269)
  %20 = load ptr, ptr %8, align 8, !tbaa !23
  call void (i32, ...) @ERR_add_error_data(i32 noundef 2, ptr noundef @.str.1, ptr noundef %20)
  store ptr null, ptr %6, align 8
  store i32 1, ptr %14, align 4
  br label %30

21:                                               ; preds = %5
  %22 = load ptr, ptr %7, align 8, !tbaa !25
  %23 = load ptr, ptr %12, align 8, !tbaa !13
  %24 = load i32, ptr %9, align 4, !tbaa !11
  %25 = load ptr, ptr %10, align 8, !tbaa !23
  %26 = load i32, ptr %11, align 4, !tbaa !11
  %27 = call ptr @X509_ATTRIBUTE_create_by_OBJ(ptr noundef %22, ptr noundef %23, i32 noundef %24, ptr noundef %25, i32 noundef %26)
  store ptr %27, ptr %13, align 8, !tbaa !15
  %28 = load ptr, ptr %12, align 8, !tbaa !13
  call void @ASN1_OBJECT_free(ptr noundef %28)
  %29 = load ptr, ptr %13, align 8, !tbaa !15
  store ptr %29, ptr %6, align 8
  store i32 1, ptr %14, align 4
  br label %30

30:                                               ; preds = %21, %19
  call void @llvm.lifetime.end.p0(i64 8, ptr %13) #3
  call void @llvm.lifetime.end.p0(i64 8, ptr %12) #3
  %31 = load ptr, ptr %6, align 8
  ret ptr %31
}